
Memory Configuration

Name             Origin             Length             Attributes
FLASH            0x0000000000000000 0x0000000000100000 xr
SRAM             0x0000000020000000 0x0000000000040000 xrw
*default*        0x0000000000000000 0xffffffffffffffff

Linker script and memory map

LOAD main.o
LOAD start_up.o

.text           0x0000000000000000      0x39c
 *(.isr_vector)
 .isr_vector    0x0000000000000000      0x208 start_up.o
                0x0000000000000000                interruptVectors
 *(.text)
 .text          0x0000000000000208      0x144 main.o
                0x0000000000000208                wait
                0x0000000000000228                main
 .text          0x000000000000034c       0x50 start_up.o
                0x000000000000034c                GPIOP3_IRQHandler
                0x000000000000034c                DebugMon_Handler
                0x000000000000034c                I2C0_IRQHandler
                0x000000000000034c                GPIOQ0_IRQHandler
                0x000000000000034c                HardFault_Handler
                0x000000000000034c                DES0_IRQHandler
                0x000000000000034c                GPIOB_IRQHandler
                0x000000000000034c                GPIOE_IRQHandler
                0x000000000000034c                EPI0_IRQHandler
                0x000000000000034c                GPIOA_IRQHandler
                0x000000000000034c                SysTick_Handler
                0x000000000000034c                GPIOL_IRQHandler
                0x000000000000034c                PendSV_Handler
                0x000000000000034c                NMI_Handler
                0x000000000000034c                I2C1_IRQHandler
                0x000000000000034c                AES0_IRQHandler
                0x000000000000034c                UART1_IRQHandler
                0x000000000000034c                CAN1_IRQHandler
                0x000000000000034c                GPIOQ4_IRQHandler
                0x000000000000034c                TIMER4B_IRQHandler
                0x000000000000034c                TIMER3A_IRQHandler
                0x000000000000034c                TIMER4A_IRQHandler
                0x000000000000034c                GPIOK_IRQHandler
                0x000000000000034c                UART0_IRQHandler
                0x000000000000034c                SSI0_IRQHandler
                0x000000000000034c                PWM0_0_IRQHandler
                0x000000000000034c                WATCHDOG_IRQHandler
                0x000000000000034c                GPIOQ7_IRQHandler
                0x000000000000034c                UsageFault_Handler
                0x000000000000034c                I2C7_IRQHandler
                0x000000000000034c                GPIOQ2_IRQHandler
                0x000000000000034c                GPIOP5_IRQHandler
                0x000000000000034c                GPIOM_IRQHandler
                0x000000000000034c                EMAC0_IRQHandler
                0x000000000000034c                GPIOP2_IRQHandler
                0x000000000000034c                TIMER2B_IRQHandler
                0x000000000000034c                I2C4_IRQHandler
                0x000000000000034c                I2C5_IRQHandler
                0x000000000000034c                TIMER6A_IRQHandler
                0x000000000000034c                SSI1_IRQHandler
                0x000000000000034c                GPIOF_IRQHandler
                0x000000000000034c                I2C2_IRQHandler
                0x000000000000034c                GPIOQ1_IRQHandler
                0x000000000000034c                ADC1SS0_IRQHandler
                0x000000000000034c                GPIOP7_IRQHandler
                0x000000000000034c                TIMER0B_IRQHandler
                0x000000000000034c                TIMER3B_IRQHandler
                0x000000000000034c                TIMER2A_IRQHandler
                0x000000000000034c                UART5_IRQHandler
                0x000000000000034c                GPIOD_IRQHandler
                0x000000000000034c                TIMER0A_IRQHandler
                0x000000000000034c                COMP0_IRQHandler
                0x000000000000034c                PWM0_2_IRQHandler
                0x000000000000034c                GPIOC_IRQHandler
                0x000000000000034c                SHA0_IRQHandler
                0x000000000000034c                UDMA_IRQHandler
                0x000000000000034c                UART2_IRQHandler
                0x000000000000034c                UART4_IRQHandler
                0x000000000000034c                GPIOP4_IRQHandler
                0x000000000000034c                I2C6_IRQHandler
                0x000000000000034c                Default_Handler
                0x000000000000034c                COMP2_IRQHandler
                0x000000000000034c                I2C9_IRQHandler
                0x000000000000034c                ADC0SS3_IRQHandler
                0x000000000000034c                QEI0_IRQHandler
                0x000000000000034c                GPIOG_IRQHandler
                0x000000000000034c                GPIOH_IRQHandler
                0x000000000000034c                ADC1SS2_IRQHandler
                0x000000000000034c                TIMER5A_IRQHandler
                0x000000000000034c                USB0_IRQHandler
                0x000000000000034c                I2C3_IRQHandler
                0x000000000000034c                GPIOQ3_IRQHandler
                0x000000000000034c                MemManage_Handler
                0x000000000000034c                ADC0SS2_IRQHandler
                0x000000000000034c                SYSEXC_IRQHandler
                0x000000000000034c                UDMAERR_IRQHandler
                0x000000000000034c                GPIOQ5_IRQHandler
                0x000000000000034c                SVC_Handler
                0x000000000000034c                ADC1SS1_IRQHandler
                0x000000000000034c                GPIOJ_IRQHandler
                0x000000000000034c                ADC0SS0_IRQHandler
                0x000000000000034c                ADC0SS1_IRQHandler
                0x000000000000034c                CAN0_IRQHandler
                0x000000000000034c                TIMER6B_IRQHandler
                0x000000000000034c                TIMER5B_IRQHandler
                0x000000000000034c                GPIOQ6_IRQHandler
                0x000000000000034c                GPIOP6_IRQHandler
                0x000000000000034c                GPIOP0_IRQHandler
                0x000000000000034c                PWM0_3_IRQHandler
                0x000000000000034c                SYSCTL_IRQHandler
                0x000000000000034c                PWM0_1_IRQHandler
                0x000000000000034c                SSI2_IRQHandler
                0x000000000000034c                UART7_IRQHandler
                0x000000000000034c                HIBERNATE_IRQHandler
                0x000000000000034c                UART6_IRQHandler
                0x000000000000034c                PWM0_FAULT_IRQHandler
                0x000000000000034c                TAMPER0_IRQHandler
                0x000000000000034c                TIMER7B_IRQHandler
                0x000000000000034c                TIMER7A_IRQHandler
                0x000000000000034c                TIMER1A_IRQHandler
                0x000000000000034c                FLASH_IRQHandler
                0x000000000000034c                GPION_IRQHandler
                0x000000000000034c                BusFault_Handler
                0x000000000000034c                SSI3_IRQHandler
                0x000000000000034c                UART3_IRQHandler
                0x000000000000034c                I2C8_IRQHandler
                0x000000000000034c                COMP1_IRQHandler
                0x000000000000034c                TIMER1B_IRQHandler
                0x000000000000034c                GPIOP1_IRQHandler
                0x000000000000034c                ADC1SS3_IRQHandler
                0x000000000000034e                Reset_Handler
 *(.rodata)
                0x000000000000039c                . = ALIGN (0x4)
                0x000000000000039c                _etext = .
                0x000000000000039c                _la_data = LOADADDR (.data)

.glue_7         0x000000000000039c        0x0
 .glue_7        0x000000000000039c        0x0 linker stubs

.glue_7t        0x000000000000039c        0x0
 .glue_7t       0x000000000000039c        0x0 linker stubs

.vfp11_veneer   0x000000000000039c        0x0
 .vfp11_veneer  0x000000000000039c        0x0 linker stubs

.v4_bx          0x000000000000039c        0x0
 .v4_bx         0x000000000000039c        0x0 linker stubs

.iplt           0x000000000000039c        0x0
 .iplt          0x000000000000039c        0x0 main.o

.rel.dyn        0x000000000000039c        0x0
 .rel.iplt      0x000000000000039c        0x0 main.o

.data           0x0000000020000000        0x0 load address 0x000000000000039c
                0x0000000020000000                _sdata = .
 *(.data)
 .data          0x0000000020000000        0x0 main.o
 .data          0x0000000020000000        0x0 start_up.o
                0x0000000020000000                . = ALIGN (0x4)
                0x0000000020000000                _edata = .

.igot.plt       0x0000000020000000        0x0 load address 0x000000000000039c
 .igot.plt      0x0000000020000000        0x0 main.o

.bss            0x0000000020000000        0x0 load address 0x000000000000039c
                0x0000000020000000                _sbss = .
 *(.bss)
 .bss           0x0000000020000000        0x0 main.o
 .bss           0x0000000020000000        0x0 start_up.o
 *(COMMON)
                0x0000000020000000                . = ALIGN (0x4)
                0x0000000020000000                _ebss = .
OUTPUT(.//gpio_test.elf elf32-littlearm)
LOAD linker stubs

.debug_info     0x0000000000000000      0xb14
 .debug_info    0x0000000000000000      0x95e main.o
 .debug_info    0x000000000000095e      0x1b6 start_up.o

.debug_abbrev   0x0000000000000000      0x25e
 .debug_abbrev  0x0000000000000000      0x146 main.o
 .debug_abbrev  0x0000000000000146      0x118 start_up.o

.debug_aranges  0x0000000000000000       0x40
 .debug_aranges
                0x0000000000000000       0x20 main.o
 .debug_aranges
                0x0000000000000020       0x20 start_up.o

.debug_line     0x0000000000000000      0x300
 .debug_line    0x0000000000000000      0x1d5 main.o
 .debug_line    0x00000000000001d5      0x12b start_up.o

.debug_str      0x0000000000000000      0x56a
 .debug_str     0x0000000000000000      0x4f1 main.o
                                        0x525 (size before relaxing)
 .debug_str     0x00000000000004f1       0x79 start_up.o
                                        0x1b3 (size before relaxing)

.comment        0x0000000000000000       0x33
 .comment       0x0000000000000000       0x33 main.o
                                         0x34 (size before relaxing)
 .comment       0x0000000000000033       0x34 start_up.o

.ARM.attributes
                0x0000000000000000       0x2e
 .ARM.attributes
                0x0000000000000000       0x2e main.o
 .ARM.attributes
                0x000000000000002e       0x2e start_up.o

.debug_frame    0x0000000000000000       0x78
 .debug_frame   0x0000000000000000       0x40 main.o
 .debug_frame   0x0000000000000040       0x38 start_up.o

.debug_loc      0x0000000000000000       0xd9
 .debug_loc     0x0000000000000000       0xd9 start_up.o

.debug_ranges   0x0000000000000000       0x18
 .debug_ranges  0x0000000000000000       0x18 start_up.o
